target datalayout = "e-m:e-p270:32:32-p271:32:32-p272:64:64-i64:64-i128:128-f80:128-n8:16:32:64-S128"
target triple = "x86_64-pc-linux-gnu"

%struct.SDL_IOStreamInterface = type { i32, ptr, ptr, ptr, ptr, ptr, ptr }
%struct.SDL_IOStream = type { %struct.SDL_IOStreamInterface, ptr, i32, i32 }
%struct.IOStreamMemData = type { ptr, ptr, ptr }
%struct.IOStreamDynamicMemData = type { ptr, %struct.IOStreamMemData, ptr }

@.str.2 = private unnamed_addr constant [26 x i8] c"Parameter '%s' is invalid\00", align 1
@.str.12 = private unnamed_addr constant [6 x i8] c"iface\00", align 1
@.str.13 = private unnamed_addr constant [67 x i8] c"Invalid interface, should be initialized with SDL_INIT_INTERFACE()\00", align 1

; Function Attrs: nounwind uwtable
define hidden ptr @SDL_OpenIO_REAL(ptr noundef %0, ptr noundef %1) #0 {
  %3 = alloca ptr, align 8
  %4 = alloca ptr, align 8
  %5 = alloca ptr, align 8
  %6 = alloca ptr, align 8
  store ptr %0, ptr %4, align 8
  store ptr %1, ptr %5, align 8
  %7 = load ptr, ptr %4, align 8
  %8 = icmp ne ptr %7, null
  br i1 %8, label %11, label %9

9:                                                ; preds = %2
  %10 = call zeroext i1 (ptr, ...) @SDL_SetError_REAL(ptr noundef @.str.2, ptr noundef @.str.12)
  store ptr null, ptr %3, align 8
  br label %32

11:                                               ; preds = %2
  %12 = load ptr, ptr %4, align 8
  %13 = getelementptr inbounds nuw %struct.SDL_IOStreamInterface, ptr %12, i32 0, i32 0
  %14 = load i32, ptr %13, align 8
  %15 = zext i32 %14 to i64
  %16 = icmp ult i64 %15, 56
  br i1 %16, label %17, label %19

17:                                               ; preds = %11
  %18 = call zeroext i1 (ptr, ...) @SDL_SetError_REAL(ptr noundef @.str.13)
  store ptr null, ptr %3, align 8
  br label %32

19:                                               ; preds = %11
  call void @llvm.lifetime.start.p0(i64 8, ptr %6) #11
  %20 = call noalias ptr @SDL_calloc_REAL(i64 noundef 1, i64 noundef 72) #12
  store ptr %20, ptr %6, align 8
  %21 = load ptr, ptr %6, align 8
  %22 = icmp ne ptr %21, null
  br i1 %22, label %23, label %30

23:                                               ; preds = %19
  %24 = load ptr, ptr %6, align 8
  %25 = getelementptr inbounds nuw %struct.SDL_IOStream, ptr %24, i32 0, i32 0
  %26 = load ptr, ptr %4, align 8
  call void @llvm.memcpy.p0.p0.i64(ptr align 8 %25, ptr align 8 %26, i64 56, i1 false)
  %27 = load ptr, ptr %5, align 8
  %28 = load ptr, ptr %6, align 8
  %29 = getelementptr inbounds nuw %struct.SDL_IOStream, ptr %28, i32 0, i32 1
  store ptr %27, ptr %29, align 8
  br label %30

30:                                               ; preds = %23, %19
  %31 = load ptr, ptr %6, align 8
  store ptr %31, ptr %3, align 8
  call void @llvm.lifetime.end.p0(i64 8, ptr %6) #11
  br label %32

32:                                               ; preds = %30, %17, %9
  %33 = load ptr, ptr %3, align 8
  ret ptr %33
}

; Function Attrs: nounwind uwtable
define hidden ptr @SDL_IOFromDynamicMem_REAL() #0 {
  %1 = alloca ptr, align 8
  %2 = alloca ptr, align 8
  %3 = alloca i32, align 4
  %4 = alloca %struct.SDL_IOStreamInterface, align 8
  %5 = alloca ptr, align 8
  call void @llvm.lifetime.start.p0(i64 8, ptr %2) #11
  %6 = call noalias ptr @SDL_calloc_REAL(i64 noundef 1, i64 noundef 40) #12
  store ptr %6, ptr %2, align 8
  %7 = load ptr, ptr %2, align 8
  %8 = icmp ne ptr %7, null
  br i1 %8, label %10, label %9

9:                                                ; preds = %0
  store ptr null, ptr %1, align 8
  store i32 1, ptr %3, align 4
  br label %32

10:                                               ; preds = %0
  call void @llvm.lifetime.start.p0(i64 56, ptr %4) #11
  br label %11

11:                                               ; preds = %10
  call void @llvm.memset.p0.i64(ptr align 8 %4, i8 0, i64 56, i1 false)
  %12 = getelementptr inbounds nuw %struct.SDL_IOStreamInterface, ptr %4, i32 0, i32 0
  store i32 56, ptr %12, align 8
  br label %13

13:                                               ; preds = %11
  br label %14

14:                                               ; preds = %13
  %15 = getelementptr inbounds nuw %struct.SDL_IOStreamInterface, ptr %4, i32 0, i32 1
  store ptr @dynamic_mem_size, ptr %15, align 8
  %16 = getelementptr inbounds nuw %struct.SDL_IOStreamInterface, ptr %4, i32 0, i32 2
  store ptr @dynamic_mem_seek, ptr %16, align 8
  %17 = getelementptr inbounds nuw %struct.SDL_IOStreamInterface, ptr %4, i32 0, i32 3
  store ptr @dynamic_mem_read, ptr %17, align 8
  %18 = getelementptr inbounds nuw %struct.SDL_IOStreamInterface, ptr %4, i32 0, i32 4
  store ptr @dynamic_mem_write, ptr %18, align 8
  %19 = getelementptr inbounds nuw %struct.SDL_IOStreamInterface, ptr %4, i32 0, i32 6
  store ptr @dynamic_mem_close, ptr %19, align 8
  call void @llvm.lifetime.start.p0(i64 8, ptr %5) #11
  %20 = load ptr, ptr %2, align 8
  %21 = call ptr @SDL_OpenIO_REAL(ptr noundef %4, ptr noundef %20)
  store ptr %21, ptr %5, align 8
  %22 = load ptr, ptr %5, align 8
  %23 = icmp ne ptr %22, null
  br i1 %23, label %24, label %28

24:                                               ; preds = %14
  %25 = load ptr, ptr %5, align 8
  %26 = load ptr, ptr %2, align 8
  %27 = getelementptr inbounds nuw %struct.IOStreamDynamicMemData, ptr %26, i32 0, i32 0
  store ptr %25, ptr %27, align 8
  br label %30

28:                                               ; preds = %14
  %29 = load ptr, ptr %2, align 8
  call void @SDL_free_REAL(ptr noundef %29)
  br label %30

30:                                               ; preds = %28, %24
  %31 = load ptr, ptr %5, align 8
  store ptr %31, ptr %1, align 8
  store i32 1, ptr %3, align 4
  call void @llvm.lifetime.end.p0(i64 8, ptr %5) #11
  call void @llvm.lifetime.end.p0(i64 56, ptr %4) #11
  br label %32

32:                                               ; preds = %30, %9
  call void @llvm.lifetime.end.p0(i64 8, ptr %2) #11
  %33 = load ptr, ptr %1, align 8
  ret ptr %33
}