; Function Attrs: nounwind uwtable
define hidden noundef ptr @SDL_IOFromDynamicMem_REAL() local_unnamed_addr #0 {
  %1 = tail call noalias dereferenceable_or_null(40) ptr @SDL_calloc_REAL(i64 noundef 1, i64 noundef 40) #17
  %.not = icmp eq ptr %1, null
  br i1 %.not, label %7, label %2

2:                                                ; preds = %0
  %3 = tail call noalias dereferenceable_or_null(72) ptr @SDL_calloc_REAL(i64 noundef 1, i64 noundef 72) #17
  %.not11.i = icmp eq ptr %3, null
  br i1 %.not11.i, label %6, label %4

4:                                                ; preds = %2
  store i32 56, ptr %3, align 8
  %.sroa.6.0..sroa_idx = getelementptr inbounds nuw i8, ptr %3, i64 4
  store i32 0, ptr %.sroa.6.0..sroa_idx, align 4
  %.sroa.611.0..sroa_idx = getelementptr inbounds nuw i8, ptr %3, i64 8
  store ptr @dynamic_mem_size, ptr %.sroa.611.0..sroa_idx, align 8
  %.sroa.7.0..sroa_idx = getelementptr inbounds nuw i8, ptr %3, i64 16
  store ptr @dynamic_mem_seek, ptr %.sroa.7.0..sroa_idx, align 8
  %.sroa.8.0..sroa_idx = getelementptr inbounds nuw i8, ptr %3, i64 24
  store ptr @dynamic_mem_read, ptr %.sroa.8.0..sroa_idx, align 8
  %.sroa.9.0..sroa_idx = getelementptr inbounds nuw i8, ptr %3, i64 32
  store ptr @dynamic_mem_write, ptr %.sroa.9.0..sroa_idx, align 8
  %.sroa.10.0..sroa_idx = getelementptr inbounds nuw i8, ptr %3, i64 40
  store ptr null, ptr %.sroa.10.0..sroa_idx, align 8
  %.sroa.1012.0..sroa_idx = getelementptr inbounds nuw i8, ptr %3, i64 48
  store ptr @dynamic_mem_close, ptr %.sroa.1012.0..sroa_idx, align 8
  %5 = getelementptr inbounds nuw i8, ptr %3, i64 56
  store ptr %1, ptr %5, align 8
  store ptr %3, ptr %1, align 8
  br label %7

6:                                                ; preds = %2
  tail call void @SDL_free_REAL(ptr noundef nonnull %1) #18
  br label %7

7:                                                ; preds = %4, %6, %0
  %.0 = phi ptr [ null, %0 ], [ null, %6 ], [ %3, %4 ]
  ret ptr %.0
}